target datalayout = "e-m:e-p270:32:32-p271:32:32-p272:64:64-i64:64-i128:128-f80:128-n8:16:32:64-S128"
target triple = "x86_64-pc-linux-gnu"

; Function Attrs: mustprogress nounwind uwtable
define hidden noundef zeroext i1 @_ZN4cvc58internal6theory24equalityStatusCompatibleENS1_14EqualityStatusES2_(i32 noundef %0, i32 noundef %1) #4 {
  %3 = alloca i1, align 1
  %4 = alloca i32, align 4
  %5 = alloca i32, align 4
  store i32 %0, ptr %4, align 4, !tbaa !18
  store i32 %1, ptr %5, align 4, !tbaa !18
  %6 = load i32, ptr %4, align 4, !tbaa !18
  switch i32 %6, label %15 [
    i32 2, label %7
    i32 4, label %7
    i32 0, label %7
    i32 3, label %11
    i32 5, label %11
    i32 1, label %11
  ]

7:                                                ; preds = %2, %2, %2
  %8 = load i32, ptr %5, align 4, !tbaa !18
  switch i32 %8, label %10 [
    i32 2, label %9
    i32 4, label %9
    i32 0, label %9
  ]

9:                                                ; preds = %7, %7, %7
  store i1 true, ptr %3, align 1
  br label %16

10:                                               ; preds = %7
  store i1 false, ptr %3, align 1
  br label %16

11:                                               ; preds = %2, %2, %2
  %12 = load i32, ptr %5, align 4, !tbaa !18
  switch i32 %12, label %14 [
    i32 3, label %13
    i32 5, label %13
    i32 1, label %13
  ]

13:                                               ; preds = %11, %11, %11
  store i1 true, ptr %3, align 1
  br label %16

14:                                               ; preds = %11
  store i1 false, ptr %3, align 1
  br label %16

15:                                               ; preds = %2
  store i1 false, ptr %3, align 1
  br label %16

16:                                               ; preds = %15, %14, %13, %10, %9
  %17 = load i1, ptr %3, align 1
  ret i1 %17
}