; Function Attrs: mustprogress nofree norecurse nosync nounwind willreturn memory(none) uwtable
define hidden noundef zeroext i1 @_ZN4cvc58internal6theory24equalityStatusCompatibleENS1_14EqualityStatusES2_(i32 noundef %0, i32 noundef %1) local_unnamed_addr #7 {
  switch i32 %0, label %switch.lookup3 [
    i32 2, label %3
    i32 4, label %3
    i32 0, label %3
    i32 3, label %5
    i32 5, label %5
    i32 1, label %5
  ]

3:                                                ; preds = %2, %2, %2
  %4 = icmp ult i32 %1, 5
  br i1 %4, label %switch.lookup, label %switch.lookup3

5:                                                ; preds = %2, %2, %2
  %6 = icmp ult i32 %1, 6
  %switch.idx.cast4 = trunc i32 %1 to i1
  %spec.select = and i1 %6, %switch.idx.cast4
  br label %switch.lookup3

switch.lookup:                                    ; preds = %3
  %switch.idx.cast = trunc i32 %1 to i1
  %switch.offset = xor i1 %switch.idx.cast, true
  br label %switch.lookup3

switch.lookup3:                                   ; preds = %5, %3, %switch.lookup, %2
  %.0 = phi i1 [ false, %2 ], [ %switch.offset, %switch.lookup ], [ false, %3 ], [ %spec.select, %5 ]
  ret i1 %.0
}